; ModuleID = '51/11.c'
source_filename = "51/11.c"
target datalayout = "e-m:e-p270:32:32-p271:32:32-p272:64:64-i64:64-f80:128-n8:16:32:64-S128"
target triple = "x86_64-pc-linux-gnu"

@.str = private unnamed_addr constant [3 x i8] c"%d\00", align 1
@.str.1 = private unnamed_addr constant [3 x i8] c"%s\00", align 1
@.str.2 = private unnamed_addr constant [4 x i8] c"%d\0A\00", align 1
@.str.3 = private unnamed_addr constant [3 x i8] c"NO\00", align 1

; Function Attrs: noinline nounwind uwtable
define dso_local void @main() #0 {
  %1 = alloca i32, align 4
  %2 = alloca i32, align 4
  %3 = alloca i32, align 4
  %4 = alloca i32, align 4
  %5 = alloca i32, align 4
  %6 = alloca i32, align 4
  %7 = alloca [1000 x i32], align 16
  %8 = alloca [1000 x i8], align 16
  %9 = alloca [500 x [6 x i8]], align 16
  %10 = alloca [6 x i8], align 1
  %11 = alloca i32, align 4
  store i32 0, i32* %5, align 4
  %12 = bitcast [1000 x i32]* %7 to i8*
  call void @llvm.memset.p0i8.i64(i8* align 16 %12, i8 0, i64 4000, i1 false)
  %13 = call i32 (i8*, ...) @__isoc99_scanf(i8* getelementptr inbounds ([3 x i8], [3 x i8]* @.str, i64 0, i64 0), i32* %1)
  %14 = getelementptr inbounds [1000 x i8], [1000 x i8]* %8, i64 0, i64 0
  %15 = call i32 (i8*, ...) @__isoc99_scanf(i8* getelementptr inbounds ([3 x i8], [3 x i8]* @.str.1, i64 0, i64 0), i8* %14)
  %16 = getelementptr inbounds [1000 x i8], [1000 x i8]* %8, i64 0, i64 0
  %17 = call i64 @strlen(i8* %16) #5
  %18 = trunc i64 %17 to i32
  store i32 %18, i32* %6, align 4
  store i32 0, i32* %2, align 4
  br label %19

19:                                               ; preds = %32, %0
  %20 = load i32, i32* %2, align 4
  %21 = load i32, i32* %1, align 4
  %22 = icmp slt i32 %20, %21
  br i1 %22, label %23, label %35

23:                                               ; preds = %19
  %24 = load i32, i32* %2, align 4
  %25 = sext i32 %24 to i64
  %26 = getelementptr inbounds [1000 x i8], [1000 x i8]* %8, i64 0, i64 %25
  %27 = load i8, i8* %26, align 1
  %28 = getelementptr inbounds [500 x [6 x i8]], [500 x [6 x i8]]* %9, i64 0, i64 0
  %29 = load i32, i32* %2, align 4
  %30 = sext i32 %29 to i64
  %31 = getelementptr inbounds [6 x i8], [6 x i8]* %28, i64 0, i64 %30
  store i8 %27, i8* %31, align 1
  br label %32

32:                                               ; preds = %23
  %33 = load i32, i32* %2, align 4
  %34 = add nsw i32 %33, 1
  store i32 %34, i32* %2, align 4
  br label %19

35:                                               ; preds = %19
  %36 = getelementptr inbounds [500 x [6 x i8]], [500 x [6 x i8]]* %9, i64 0, i64 0
  %37 = load i32, i32* %2, align 4
  %38 = sext i32 %37 to i64
  %39 = getelementptr inbounds [6 x i8], [6 x i8]* %36, i64 0, i64 %38
  store i8 0, i8* %39, align 1
  %40 = getelementptr inbounds [1000 x i32], [1000 x i32]* %7, i64 0, i64 0
  store i32 1, i32* %40, align 16
  store i32 1, i32* %4, align 4
  store i32 1, i32* %2, align 4
  br label %41

41:                                               ; preds = %110, %35
  %42 = load i32, i32* %2, align 4
  %43 = load i32, i32* %6, align 4
  %44 = load i32, i32* %1, align 4
  %45 = sub nsw i32 %43, %44
  %46 = add nsw i32 %45, 1
  %47 = icmp slt i32 %42, %46
  br i1 %47, label %48, label %113

48:                                               ; preds = %41
  store i32 0, i32* %3, align 4
  br label %49

49:                                               ; preds = %63, %48
  %50 = load i32, i32* %3, align 4
  %51 = load i32, i32* %1, align 4
  %52 = icmp slt i32 %50, %51
  br i1 %52, label %53, label %66

53:                                               ; preds = %49
  %54 = load i32, i32* %2, align 4
  %55 = load i32, i32* %3, align 4
  %56 = add nsw i32 %54, %55
  %57 = sext i32 %56 to i64
  %58 = getelementptr inbounds [1000 x i8], [1000 x i8]* %8, i64 0, i64 %57
  %59 = load i8, i8* %58, align 1
  %60 = load i32, i32* %3, align 4
  %61 = sext i32 %60 to i64
  %62 = getelementptr inbounds [6 x i8], [6 x i8]* %10, i64 0, i64 %61
  store i8 %59, i8* %62, align 1
  br label %63

63:                                               ; preds = %53
  %64 = load i32, i32* %3, align 4
  %65 = add nsw i32 %64, 1
  store i32 %65, i32* %3, align 4
  br label %49

66:                                               ; preds = %49
  %67 = load i32, i32* %3, align 4
  %68 = sext i32 %67 to i64
  %69 = getelementptr inbounds [6 x i8], [6 x i8]* %10, i64 0, i64 %68
  store i8 0, i8* %69, align 1
  store i32 0, i32* %11, align 4
  br label %70

70:                                               ; preds = %84, %66
  %71 = load i32, i32* %11, align 4
  %72 = load i32, i32* %4, align 4
  %73 = icmp slt i32 %71, %72
  br i1 %73, label %74, label %82

74:                                               ; preds = %70
  %75 = getelementptr inbounds [6 x i8], [6 x i8]* %10, i64 0, i64 0
  %76 = load i32, i32* %11, align 4
  %77 = sext i32 %76 to i64
  %78 = getelementptr inbounds [500 x [6 x i8]], [500 x [6 x i8]]* %9, i64 0, i64 %77
  %79 = getelementptr inbounds [6 x i8], [6 x i8]* %78, i64 0, i64 0
  %80 = call i32 @strcmp(i8* %75, i8* %79) #5
  %81 = icmp ne i32 %80, 0
  br label %82

82:                                               ; preds = %74, %70
  %83 = phi i1 [ false, %70 ], [ %81, %74 ]
  br i1 %83, label %84, label %87

84:                                               ; preds = %82
  %85 = load i32, i32* %11, align 4
  %86 = add nsw i32 %85, 1
  store i32 %86, i32* %11, align 4
  br label %70

87:                                               ; preds = %82
  %88 = load i32, i32* %11, align 4
  %89 = load i32, i32* %4, align 4
  %90 = icmp slt i32 %88, %89
  br i1 %90, label %91, label %97

91:                                               ; preds = %87
  %92 = load i32, i32* %11, align 4
  %93 = sext i32 %92 to i64
  %94 = getelementptr inbounds [1000 x i32], [1000 x i32]* %7, i64 0, i64 %93
  %95 = load i32, i32* %94, align 4
  %96 = add nsw i32 %95, 1
  store i32 %96, i32* %94, align 4
  br label %109

97:                                               ; preds = %87
  %98 = load i32, i32* %4, align 4
  %99 = sext i32 %98 to i64
  %100 = getelementptr inbounds [1000 x i32], [1000 x i32]* %7, i64 0, i64 %99
  store i32 1, i32* %100, align 4
  %101 = load i32, i32* %4, align 4
  %102 = sext i32 %101 to i64
  %103 = getelementptr inbounds [500 x [6 x i8]], [500 x [6 x i8]]* %9, i64 0, i64 %102
  %104 = getelementptr inbounds [6 x i8], [6 x i8]* %103, i64 0, i64 0
  %105 = getelementptr inbounds [6 x i8], [6 x i8]* %10, i64 0, i64 0
  %106 = call i8* @strcpy(i8* %104, i8* %105) #6
  %107 = load i32, i32* %4, align 4
  %108 = add nsw i32 %107, 1
  store i32 %108, i32* %4, align 4
  br label %109

109:                                              ; preds = %97, %91
  br label %110

110:                                              ; preds = %109
  %111 = load i32, i32* %2, align 4
  %112 = add nsw i32 %111, 1
  store i32 %112, i32* %2, align 4
  br label %41

113:                                              ; preds = %41
  store i32 0, i32* %2, align 4
  br label %114

114:                                              ; preds = %131, %113
  %115 = load i32, i32* %2, align 4
  %116 = load i32, i32* %4, align 4
  %117 = icmp slt i32 %115, %116
  br i1 %117, label %118, label %134

118:                                              ; preds = %114
  %119 = load i32, i32* %2, align 4
  %120 = sext i32 %119 to i64
  %121 = getelementptr inbounds [1000 x i32], [1000 x i32]* %7, i64 0, i64 %120
  %122 = load i32, i32* %121, align 4
  %123 = load i32, i32* %5, align 4
  %124 = icmp sgt i32 %122, %123
  br i1 %124, label %125, label %130

125:                                              ; preds = %118
  %126 = load i32, i32* %2, align 4
  %127 = sext i32 %126 to i64
  %128 = getelementptr inbounds [1000 x i32], [1000 x i32]* %7, i64 0, i64 %127
  %129 = load i32, i32* %128, align 4
  store i32 %129, i32* %5, align 4
  br label %130

130:                                              ; preds = %125, %118
  br label %131

131:                                              ; preds = %130
  %132 = load i32, i32* %2, align 4
  %133 = add nsw i32 %132, 1
  store i32 %133, i32* %2, align 4
  br label %114

134:                                              ; preds = %114
  %135 = load i32, i32* %5, align 4
  %136 = icmp sgt i32 %135, 1
  br i1 %136, label %137, label %162

137:                                              ; preds = %134
  %138 = load i32, i32* %5, align 4
  %139 = call i32 (i8*, ...) @printf(i8* getelementptr inbounds ([4 x i8], [4 x i8]* @.str.2, i64 0, i64 0), i32 %138)
  store i32 0, i32* %2, align 4
  br label %140

140:                                              ; preds = %158, %137
  %141 = load i32, i32* %2, align 4
  %142 = load i32, i32* %4, align 4
  %143 = icmp slt i32 %141, %142
  br i1 %143, label %144, label %161

144:                                              ; preds = %140
  %145 = load i32, i32* %2, align 4
  %146 = sext i32 %145 to i64
  %147 = getelementptr inbounds [1000 x i32], [1000 x i32]* %7, i64 0, i64 %146
  %148 = load i32, i32* %147, align 4
  %149 = load i32, i32* %5, align 4
  %150 = icmp eq i32 %148, %149
  br i1 %150, label %151, label %157

151:                                              ; preds = %144
  %152 = load i32, i32* %2, align 4
  %153 = sext i32 %152 to i64
  %154 = getelementptr inbounds [500 x [6 x i8]], [500 x [6 x i8]]* %9, i64 0, i64 %153
  %155 = getelementptr inbounds [6 x i8], [6 x i8]* %154, i64 0, i64 0
  %156 = call i32 @puts(i8* %155)
  br label %157

157:                                              ; preds = %151, %144
  br label %158

158:                                              ; preds = %157
  %159 = load i32, i32* %2, align 4
  %160 = add nsw i32 %159, 1
  store i32 %160, i32* %2, align 4
  br label %140

161:                                              ; preds = %140
  br label %164

162:                                              ; preds = %134
  %163 = call i32 (i8*, ...) @printf(i8* getelementptr inbounds ([3 x i8], [3 x i8]* @.str.3, i64 0, i64 0))
  br label %164

164:                                              ; preds = %162, %161
  ret void
}

; Function Attrs: argmemonly nounwind willreturn
declare void @llvm.memset.p0i8.i64(i8* nocapture writeonly, i8, i64, i1 immarg) #1

declare dso_local i32 @__isoc99_scanf(i8*, ...) #2

; Function Attrs: nounwind readonly
declare dso_local i64 @strlen(i8*) #3

; Function Attrs: nounwind readonly
declare dso_local i32 @strcmp(i8*, i8*) #3

; Function Attrs: nounwind
declare dso_local i8* @strcpy(i8*, i8*) #4

declare dso_local i32 @printf(i8*, ...) #2

declare dso_local i32 @puts(i8*) #2


!llvm.module.flags = !{!0}
!llvm.ident = !{!1}

!0 = !{i32 1, !"wchar_size", i32 4}
!1 = !{!"clang version 10.0.0-4ubuntu1 "}
